; Function Attrs: nounwind uwtable
define dso_local noundef i64 @inet_to_cidr(ptr noundef readonly captures(none) %0) local_unnamed_addr #0 {
  %2 = getelementptr inbounds nuw i8, ptr %0, i64 32
  %3 = load i64, ptr %2, align 8
  %4 = inttoptr i64 %3 to ptr
  %5 = tail call ptr @pg_detoast_datum_packed(ptr noundef %4) #14
  %6 = load i8, ptr %5, align 1
  %7 = and i8 %6, 1
  %.not = icmp eq i8 %7, 0
  %.v = select i1 %.not, i64 4, i64 1
  %8 = getelementptr inbounds nuw i8, ptr %5, i64 %.v
  %9 = getelementptr inbounds nuw i8, ptr %8, i64 1
  %10 = load i8, ptr %9, align 1
  %11 = zext i8 %10 to i32
  %12 = load i8, ptr %8, align 1
  %13 = icmp eq i8 %12, 2
  %14 = select i1 %13, i32 32, i32 128
  %15 = icmp samesign ult i32 %14, %11
  br i1 %15, label %16, label %19

16:                                               ; preds = %1
  %17 = tail call zeroext i1 @errstart_cold(i32 noundef 21, ptr noundef null) #16
  tail call void @llvm.assume(i1 %17)
  %18 = tail call i32 (ptr, ...) @errmsg_internal(ptr noundef nonnull @.str, i32 noundef %11) #14
  tail call void @errfinish(ptr noundef nonnull @.str.1, i32 noundef 318, ptr noundef nonnull @__func__.inet_to_cidr) #14
  unreachable

19:                                               ; preds = %1
  %20 = tail call ptr @palloc0(i64 noundef 22) #14
  %21 = load i8, ptr %5, align 1
  %22 = and i8 %21, 1
  %.not.i = icmp eq i8 %22, 0
  %23 = getelementptr inbounds nuw i8, ptr %5, i64 1
  %24 = getelementptr inbounds nuw i8, ptr %5, i64 4
  %25 = select i1 %.not.i, ptr %24, ptr %23
  %26 = load i8, ptr %25, align 1
  %27 = load i8, ptr %20, align 1
  %28 = and i8 %27, 1
  %.not29.i = icmp eq i8 %28, 0
  %29 = getelementptr inbounds nuw i8, ptr %20, i64 1
  %30 = getelementptr inbounds nuw i8, ptr %20, i64 4
  %31 = select i1 %.not29.i, ptr %30, ptr %29
  store i8 %26, ptr %31, align 1
  %32 = getelementptr inbounds nuw i8, ptr %31, i64 1
  store i8 %10, ptr %32, align 1
  %.not11 = icmp eq i8 %10, 0
  br i1 %.not11, label %cidr_set_masklen_internal.exit, label %33

33:                                               ; preds = %19
  %34 = load i8, ptr %20, align 1
  %35 = and i8 %34, 1
  %.not31.i = icmp eq i8 %35, 0
  %36 = select i1 %.not31.i, ptr %30, ptr %29
  %37 = getelementptr inbounds nuw i8, ptr %36, i64 2
  %38 = load i8, ptr %5, align 1
  %39 = and i8 %38, 1
  %.not32.i = icmp eq i8 %39, 0
  %40 = select i1 %.not32.i, ptr %24, ptr %23
  %41 = getelementptr inbounds nuw i8, ptr %40, i64 2
  %.lhs.trunc = add i8 %10, 7
  %42 = lshr i8 %.lhs.trunc, 3
  %43 = zext nneg i8 %42 to i64
  tail call void @llvm.memcpy.p0.p0.i64(ptr nonnull align 1 %37, ptr nonnull align 1 %41, i64 %43, i1 false)
  %44 = and i32 %11, 7
  %.not33.i = icmp eq i32 %44, 0
  br i1 %.not33.i, label %cidr_set_masklen_internal.exit, label %45

45:                                               ; preds = %33
  %46 = ashr exact i32 -256, %44
  %47 = load i8, ptr %20, align 1
  %48 = and i8 %47, 1
  %.not34.i = icmp eq i8 %48, 0
  %49 = select i1 %.not34.i, ptr %30, ptr %29
  %50 = getelementptr inbounds nuw i8, ptr %49, i64 2
  %51 = lshr i32 %11, 3
  %52 = zext nneg i32 %51 to i64
  %53 = getelementptr inbounds nuw [16 x i8], ptr %50, i64 0, i64 %52
  %54 = load i8, ptr %53, align 1
  %55 = trunc i32 %46 to i8
  %56 = and i8 %54, %55
  store i8 %56, ptr %53, align 1
  br label %cidr_set_masklen_internal.exit

cidr_set_masklen_internal.exit:                   ; preds = %19, %33, %45
  %57 = load i8, ptr %20, align 1
  %58 = and i8 %57, 1
  %.not35.i = icmp eq i8 %58, 0
  %59 = select i1 %.not35.i, ptr %30, ptr %29
  %60 = load i8, ptr %59, align 1
  %61 = icmp eq i8 %60, 2
  %62 = select i1 %61, i32 40, i32 88
  store i32 %62, ptr %20, align 4
  %63 = ptrtoint ptr %20 to i64
  ret i64 %63
}